Certificate:
    Data:
        Version: 3 (0x2)
        Serial Number: 1 (0x1)
    Signature Algorithm: sha1WithRSAEncryption
        Issuer: C=US, ST=California, L=San Francisco, O=CoreOS, OU=BootCA, CN=Core Boot CA
        Validity
            Not Before: Jan  1 00:00:00 1970 GMT
            Not After : Nov 24 08:00:32 2024 GMT
        Subject: C=US, ST=CA, L=SF, O=CoreOS, OU=BootSign, CN=Core Boot Signer
        Subject Public Key Info:
            Public Key Algorithm: rsaEncryption
                Public-Key: (2048 bit)
                Modulus:
                    00:e5:99:ce:59:fa:73:9c:b6:19:1b:90:44:9b:34:
                    53:c3:ef:81:74:54:0c:e0:92:2f:8e:b4:df:80:35:
                    3b:29:57:bc:48:8b:d2:ad:19:f7:2e:ed:e5:81:14:
                    b6:07:47:de:c4:0b:49:db:6a:c2:f2:74:b7:62:29:
                    8f:74:3e:57:97:93:0e:bd:af:e4:b5:c2:34:3b:3f:
                    3f:de:7d:8e:26:af:c3:01:49:64:05:22:a6:88:83:
                    4f:d6:69:f7:a3:99:37:14:e3:05:86:7e:d8:7b:2b:
                    57:65:3e:e2:ce:d4:53:d2:d4:55:74:55:35:53:9d:
                    08:9c:3f:2a:f5:04:49:62:a9:34:08:5e:fe:18:fa:
                    d3:23:85:c5:3a:6a:2c:25:33:4d:3f:3c:e1:03:9d:
                    32:fe:7c:54:2e:02:9a:92:96:af:a0:7d:75:1b:40:
                    de:73:b3:76:af:01:4e:e1:ab:e6:52:d0:52:5d:6f:
                    a3:69:9a:cd:3c:37:4e:02:44:df:51:19:48:79:dc:
                    15:e4:dd:4e:db:e9:03:ae:f1:26:45:21:82:e1:d7:
                    d3:9e:05:6d:7c:4f:4f:8a:5d:68:cc:c9:b7:83:e7:
                    dd:a6:df:e6:47:26:16:2c:64:3e:95:4a:73:c3:95:
                    d1:d2:7b:15:ad:2b:50:82:35:c3:55:12:cd:ae:ae:
                    69:1d
                Exponent: 65537 (0x10001)
        X509v3 extensions:
            X509v3 Key Usage: 
                Digital Signature
            X509v3 Extended Key Usage: 
                Code Signing
    Signature Algorithm: sha1WithRSAEncryption
         12:4c:6c:e8:a0:04:ed:ca:43:2f:29:00:88:c5:17:3f:69:35:
         25:22:8b:6d:c2:72:84:9c:0e:60:4a:da:ed:19:47:24:12:4b:
         31:d2:b6:33:73:e6:db:f1:06:07:82:6c:79:f1:31:25:99:59:
         91:92:a7:53:4a:ed:30:2d:95:7d:e9:b5:73:10:dd:53:02:fa:
         93:c5:2b:9f:65:f6:c6:e4:0d:b0:f2:2f:33:ce:2c:3c:4b:f9:
         39:f1:a5:d1:22:13:7f:ea:e9:d7:44:c9:8a:af:03:d2:29:73:
         36:5f:56:76:22:7e:af:ac:f4:4b:2f:81:09:0c:d9:16:0b:06:
         db:18:c1:33:90:c8:86:be:b8:1f:09:6e:c5:7f:a8:0d:e1:92:
         13:4e:42:5d:c9:c7:fb:f0:40:78:6a:d7:06:4e:bd:86:7a:01:
         10:48:08:32:41:c7:2e:3d:63:a0:f2:27:78:04:d5:42:c7:1e:
         43:a2:9a:f1:8b:fb:c0:c1:b4:19:cc:1f:17:b9:47:ff:f4:42:
         53:94:f9:33:20:29:db:39:0e:77:84:90:a6:8e:38:d1:9e:35:
         a4:a9:4e:d4:0f:c8:86:26:d5:ce:76:e4:4a:ec:24:4c:09:5e:
         f7:02:32:08:d3:66:e1:b7:a4:08:eb:71:49:b3:68:19:ef:77:
         4c:90:cc:4e
-----BEGIN CERTIFICATE-----
MIIDejCCAmKgAwIBAgIBATANBgkqhkiG9w0BAQUFADBzMQswCQYDVQQGEwJVUzET
MBEGA1UECAwKQ2FsaWZvcm5pYTEWMBQGA1UEBwwNU2FuIEZyYW5jaXNjbzEPMA0G
A1UECgwGQ29yZU9TMQ8wDQYDVQQLDAZCb290Q0ExFTATBgNVBAMMDENvcmUgQm9v
dCBDQTAgGA8xOTcwMDEwMTAwMDAwMFoXDTI0MTEyNDA4MDAzMlowZjELMAkGA1UE
BhMCVVMxCzAJBgNVBAgMAkNBMQswCQYDVQQHDAJTRjEPMA0GA1UECgwGQ29yZU9T
MREwDwYDVQQLDAhCb290U2lnbjEZMBcGA1UEAwwQQ29yZSBCb290IFNpZ25lcjCC
ASIwDQYJKoZIhvcNAQEBBQADggEPADCCAQoCggEBAOWZzln6c5y2GRuQRJs0U8Pv
gXRUDOCSL46034A1OylXvEiL0q0Z9y7t5YEUtgdH3sQLSdtqwvJ0t2Ipj3Q+V5eT
Dr2v5LXCNDs/P959jiavwwFJZAUipoiDT9Zp96OZNxTjBYZ+2HsrV2U+4s7UU9LU
VXRVNVOdCJw/KvUESWKpNAhe/hj60yOFxTpqLCUzTT884QOdMv58VC4CmpKWr6B9
dRtA3nOzdq8BTuGr5lLQUl1vo2mazTw3TgJE31EZSHncFeTdTtvpA67xJkUhguHX
054FbXxPT4pdaMzJt4Pn3abf5kcmFixkPpVKc8OV0dJ7Fa0rUII1w1USza6uaR0C
AwEAAaMkMCIwCwYDVR0PBAQDAgeAMBMGA1UdJQQMMAoGCCsGAQUFBwMDMA0GCSqG
SIb3DQEBBQUAA4IBAQASTGzooATtykMvKQCIxRc/aTUlIottwnKEnA5gStrtGUck
Eksx0rYzc+bb8QYHgmx58TElmVmRkqdTSu0wLZV96bVzEN1TAvqTxSufZfbG5A2w
8i8zziw8S/k58aXRIhN/6unXRMmKrwPSKXM2X1Z2In6vrPRLL4EJDNkWCwbbGMEz
kMiGvrgfCW7Ff6gN4ZITTkJdycf78EB4atcGTr2GegEQSAgyQccuPWOg8id4BNVC
xx5Doprxi/vAwbQZzB8XuUf/9EJTlPkzICnbOQ53hJCmjjjRnjWkqU7UD8iGJtXO
duRK7CRMCV73AjII02bht6QI63FJs2gZ73dMkMxO
-----END CERTIFICATE-----
